; Function Attrs: mustprogress nounwind uwtable
define hidden noundef zeroext i1 @_ZN13InstanceKlass22has_nestmate_access_toEPS_P10JavaThread(ptr noundef nonnull align 8 dereferenceable(464) %0, ptr noundef %1, ptr noundef %2) local_unnamed_addr #0 align 2 {
  %4 = tail call noundef ptr @_ZN13InstanceKlass9nest_hostEP10JavaThread(ptr noundef nonnull align 8 dereferenceable(464) %0, ptr noundef %2)
  %5 = getelementptr inbounds i8, ptr %2, i64 8
  %6 = load ptr, ptr %5, align 8
  %7 = icmp ne ptr %6, null
  %8 = icmp eq ptr %4, null
  %or.cond = or i1 %8, %7
  br i1 %or.cond, label %_ZN12ResourceMarkD2Ev.exit, label %9

9:                                                ; preds = %3
  %10 = tail call noundef ptr @_ZN13InstanceKlass9nest_hostEP10JavaThread(ptr noundef nonnull align 8 dereferenceable(464) %1, ptr noundef nonnull %2)
  %11 = load ptr, ptr %5, align 8
  %12 = icmp ne ptr %11, null
  %13 = icmp eq ptr %10, null
  %or.cond16 = or i1 %13, %12
  br i1 %or.cond16, label %_ZN12ResourceMarkD2Ev.exit, label %14

14:                                               ; preds = %9
  %15 = icmp eq ptr %4, %10
  %16 = getelementptr inbounds i8, ptr %2, i64 800
  %17 = load ptr, ptr %16, align 8
  %18 = getelementptr inbounds i8, ptr %17, i64 24
  %19 = load ptr, ptr %18, align 8
  %20 = getelementptr inbounds i8, ptr %17, i64 32
  %21 = load ptr, ptr %20, align 8
  %22 = getelementptr inbounds i8, ptr %17, i64 40
  %23 = load ptr, ptr %22, align 8
  %24 = getelementptr inbounds i8, ptr %17, i64 8
  %25 = load i64, ptr %24, align 8
  %26 = load volatile ptr, ptr getelementptr inbounds (i8, ptr @_ZN16LogTagSetMappingILN6LogTag4typeE16ELS1_93ELS1_0ELS1_0ELS1_0ELS1_0EE7_tagsetE, i64 48), align 8
  %.not = icmp eq ptr %26, null
  br i1 %.not, label %31, label %27

27:                                               ; preds = %14
  %28 = tail call noundef ptr @_ZNK5Klass13external_nameEv(ptr noundef nonnull align 8 dereferenceable(196) %0) #26
  %29 = select i1 %15, ptr @.str.22, ptr @.str.27
  %30 = tail call noundef ptr @_ZNK5Klass13external_nameEv(ptr noundef nonnull align 8 dereferenceable(196) %1) #26
  tail call void (ptr, ...) @_ZN7LogImplILN6LogTag4typeE16ELS1_93ELS1_0ELS1_0ELS1_0ELS1_0EE5writeILN8LogLevel4typeE1EEEvPKcz(ptr noundef nonnull @.str.26, ptr noundef %28, ptr noundef nonnull %29, ptr noundef %30)
  br label %31

31:                                               ; preds = %14, %27
  %32 = load ptr, ptr %19, align 8
  %.not.i.i.i.i = icmp eq ptr %32, null
  br i1 %.not.i.i.i.i, label %34, label %33

33:                                               ; preds = %31
  tail call void @_ZN5Arena17set_size_in_bytesEm(ptr noundef nonnull align 8 dereferenceable(48) %17, i64 noundef %25) #26
  tail call void @_ZN5Chunk9next_chopEPS_(ptr noundef nonnull %19) #26
  br label %34

34:                                               ; preds = %33, %31
  %35 = load ptr, ptr %20, align 8
  %.not8.i.i.i.i = icmp eq ptr %35, %21
  br i1 %.not8.i.i.i.i, label %_ZN12ResourceMarkD2Ev.exit, label %36

36:                                               ; preds = %34
  store ptr %19, ptr %18, align 8
  store ptr %21, ptr %20, align 8
  store ptr %23, ptr %22, align 8
  br label %_ZN12ResourceMarkD2Ev.exit

_ZN12ResourceMarkD2Ev.exit:                       ; preds = %36, %34, %9, %3
  %.0 = phi i1 [ false, %3 ], [ false, %9 ], [ %15, %34 ], [ %15, %36 ]
  ret i1 %.0
}